; Function Attrs: mustprogress uwtable
define dso_local void @_ZN3igl3xml15XMLSerializable11DeserializeERKSt6vectorIcSaIcEE(ptr noundef nonnull align 8 dereferenceable(40) %0, ptr noundef nonnull align 8 dereferenceable(24) %1) unnamed_addr #2 align 2 personality ptr @__gxx_personality_v0 {
  %3 = load ptr, ptr %0, align 8, !tbaa !4
  %4 = getelementptr inbounds nuw i8, ptr %3, i64 72
  %5 = load ptr, ptr %4, align 8
  %6 = tail call noundef zeroext i1 %5(ptr noundef nonnull align 8 dereferenceable(40) %0)
  br i1 %6, label %7, label %43

7:                                                ; preds = %2
  %8 = getelementptr inbounds nuw i8, ptr %0, i64 8
  %9 = load i8, ptr %8, align 8, !tbaa !7, !range !20, !noundef !21
  %10 = icmp eq i8 %9, 0
  br i1 %10, label %11, label %19

11:                                               ; preds = %7
  %12 = getelementptr inbounds nuw i8, ptr %0, i64 16
  %13 = load ptr, ptr %12, align 8, !tbaa !22
  %14 = getelementptr inbounds nuw i8, ptr %0, i64 24
  %15 = load ptr, ptr %14, align 8, !tbaa !23
  %.not.i.i = icmp eq ptr %15, %13
  br i1 %.not.i.i, label %_ZNSt6vectorIPN3igl3xml19XMLSerializableBaseESaIS3_EE5clearEv.exit, label %_ZSt8_DestroyIPPN3igl3xml19XMLSerializableBaseES3_EvT_S5_RSaIT0_E.exit.i.i

_ZSt8_DestroyIPPN3igl3xml19XMLSerializableBaseES3_EvT_S5_RSaIT0_E.exit.i.i: ; preds = %11
  store ptr %13, ptr %14, align 8, !tbaa !23
  br label %_ZNSt6vectorIPN3igl3xml19XMLSerializableBaseESaIS3_EE5clearEv.exit

_ZNSt6vectorIPN3igl3xml19XMLSerializableBaseESaIS3_EE5clearEv.exit: ; preds = %11, %_ZSt8_DestroyIPPN3igl3xml19XMLSerializableBaseES3_EvT_S5_RSaIT0_E.exit.i.i
  %16 = load ptr, ptr %0, align 8, !tbaa !4
  %17 = getelementptr inbounds nuw i8, ptr %16, i64 48
  %18 = load ptr, ptr %17, align 8
  tail call void %18(ptr noundef nonnull align 8 dereferenceable(40) %0)
  store i8 1, ptr %8, align 8, !tbaa !7
  br label %19

19:                                               ; preds = %_ZNSt6vectorIPN3igl3xml19XMLSerializableBaseESaIS3_EE5clearEv.exit, %7
  %20 = getelementptr inbounds nuw i8, ptr %0, i64 16
  %21 = getelementptr inbounds nuw i8, ptr %0, i64 24
  %22 = load ptr, ptr %21, align 8, !tbaa !23
  %23 = load ptr, ptr %20, align 8, !tbaa !22
  %.not = icmp eq ptr %22, %23
  br i1 %.not, label %._crit_edge, label %.lr.ph

._crit_edge:                                      ; preds = %.lr.ph, %19
  %24 = load ptr, ptr %0, align 8, !tbaa !4
  %25 = getelementptr inbounds nuw i8, ptr %24, i64 80
  %26 = load ptr, ptr %25, align 8
  tail call void %26(ptr noundef nonnull align 8 dereferenceable(40) %0)
  br label %43

.lr.ph:                                           ; preds = %19, %.lr.ph
  %27 = phi ptr [ %37, %.lr.ph ], [ %23, %19 ]
  %28 = phi i64 [ %35, %.lr.ph ], [ 0, %19 ]
  %.05 = phi i32 [ %34, %.lr.ph ], [ 0, %19 ]
  %29 = getelementptr inbounds nuw ptr, ptr %27, i64 %28
  %30 = load ptr, ptr %29, align 8, !tbaa !24
  %31 = load ptr, ptr %30, align 8, !tbaa !4
  %32 = getelementptr inbounds nuw i8, ptr %31, i64 24
  %33 = load ptr, ptr %32, align 8
  tail call void %33(ptr noundef nonnull align 8 dereferenceable(8) %30, ptr noundef nonnull align 8 dereferenceable(24) %1)
  %34 = add i32 %.05, 1
  %35 = zext i32 %34 to i64
  %36 = load ptr, ptr %21, align 8, !tbaa !23
  %37 = load ptr, ptr %20, align 8, !tbaa !22
  %38 = ptrtoint ptr %36 to i64
  %39 = ptrtoint ptr %37 to i64
  %40 = sub i64 %38, %39
  %41 = ashr exact i64 %40, 3
  %42 = icmp ugt i64 %41, %35
  br i1 %42, label %.lr.ph, label %._crit_edge, !llvm.loop !28

43:                                               ; preds = %._crit_edge, %2
  ret void
}